target datalayout = "e-m:e-p270:32:32-p271:32:32-p272:64:64-i64:64-i128:128-f80:128-n8:16:32:64-S128"
target triple = "x86_64-pc-linux-gnu"

%struct.buf_t = type { i32, ptr, i32, i32, i8, i8 }

@.str.10 = private unnamed_addr constant [35 x i8] c"s_p_parse_buffer: No buffer given.\00", align 1
@.str.11 = private unnamed_addr constant [42 x i8] c"s_p_parse_buffer : error in line %d: \22%s\22\00", align 1
@.str.12 = private unnamed_addr constant [39 x i8] c"s_p_parse_buffer: ending after line %u\00", align 1

; Function Attrs: nounwind uwtable
define internal void @_strip_cr_nl(ptr noundef %0) #0 {
  %2 = alloca ptr, align 8
  %3 = alloca i32, align 4
  %4 = alloca ptr, align 8
  %5 = alloca i32, align 4
  store ptr %0, ptr %2, align 8
  call void @llvm.lifetime.start.p0(i64 4, ptr %3) #9
  %6 = load ptr, ptr %2, align 8
  %7 = call i64 @strlen(ptr noundef %6) #12
  %8 = trunc i64 %7 to i32
  store i32 %8, ptr %3, align 4
  call void @llvm.lifetime.start.p0(i64 8, ptr %4) #9
  %9 = load ptr, ptr %2, align 8
  %10 = load i32, ptr %3, align 4
  %11 = sext i32 %10 to i64
  %12 = getelementptr inbounds i8, ptr %9, i64 %11
  %13 = getelementptr inbounds i8, ptr %12, i64 -1
  store ptr %13, ptr %4, align 8
  br label %14

14:                                               ; preds = %32, %1
  %15 = load ptr, ptr %4, align 8
  %16 = load ptr, ptr %2, align 8
  %17 = icmp uge ptr %15, %16
  br i1 %17, label %18, label %35

18:                                               ; preds = %14
  %19 = load ptr, ptr %4, align 8
  %20 = load i8, ptr %19, align 1
  %21 = sext i8 %20 to i32
  %22 = icmp eq i32 %21, 13
  br i1 %22, label %28, label %23

23:                                               ; preds = %18
  %24 = load ptr, ptr %4, align 8
  %25 = load i8, ptr %24, align 1
  %26 = sext i8 %25 to i32
  %27 = icmp eq i32 %26, 10
  br i1 %27, label %28, label %30

28:                                               ; preds = %23, %18
  %29 = load ptr, ptr %4, align 8
  store i8 0, ptr %29, align 1
  br label %31

30:                                               ; preds = %23
  store i32 1, ptr %5, align 4
  br label %36

31:                                               ; preds = %28
  br label %32

32:                                               ; preds = %31
  %33 = load ptr, ptr %4, align 8
  %34 = getelementptr inbounds i8, ptr %33, i32 -1
  store ptr %34, ptr %4, align 8
  br label %14, !llvm.loop !32

35:                                               ; preds = %14
  store i32 0, ptr %5, align 4
  br label %36

36:                                               ; preds = %35, %30
  call void @llvm.lifetime.end.p0(i64 8, ptr %4) #9
  call void @llvm.lifetime.end.p0(i64 4, ptr %3) #9
  %37 = load i32, ptr %5, align 4
  switch i32 %37, label %39 [
    i32 0, label %38
    i32 1, label %38
  ]

38:                                               ; preds = %36, %36
  ret void

39:                                               ; preds = %36
  unreachable
}

; Function Attrs: nounwind uwtable
define internal i32 @_line_is_space(ptr noundef %0) #0 {
  %2 = alloca i32, align 4
  %3 = alloca ptr, align 8
  %4 = alloca i32, align 4
  %5 = alloca i32, align 4
  %6 = alloca i32, align 4
  store ptr %0, ptr %3, align 8
  call void @llvm.lifetime.start.p0(i64 4, ptr %4) #9
  call void @llvm.lifetime.start.p0(i64 4, ptr %5) #9
  %7 = load ptr, ptr %3, align 8
  %8 = icmp eq ptr %7, null
  br i1 %8, label %9, label %10

9:                                                ; preds = %1
  store i32 1, ptr %2, align 4
  store i32 1, ptr %6, align 4
  br label %39

10:                                               ; preds = %1
  %11 = load ptr, ptr %3, align 8
  %12 = call i64 @strlen(ptr noundef %11) #12
  %13 = trunc i64 %12 to i32
  store i32 %13, ptr %4, align 4
  store i32 0, ptr %5, align 4
  br label %14

14:                                               ; preds = %35, %10
  %15 = load i32, ptr %5, align 4
  %16 = load i32, ptr %4, align 4
  %17 = icmp slt i32 %15, %16
  br i1 %17, label %18, label %38

18:                                               ; preds = %14
  %19 = call ptr @__ctype_b_loc() #10
  %20 = load ptr, ptr %19, align 8
  %21 = load ptr, ptr %3, align 8
  %22 = load i32, ptr %5, align 4
  %23 = sext i32 %22 to i64
  %24 = getelementptr inbounds i8, ptr %21, i64 %23
  %25 = load i8, ptr %24, align 1
  %26 = sext i8 %25 to i32
  %27 = sext i32 %26 to i64
  %28 = getelementptr inbounds i16, ptr %20, i64 %27
  %29 = load i16, ptr %28, align 2
  %30 = zext i16 %29 to i32
  %31 = and i32 %30, 8192
  %32 = icmp ne i32 %31, 0
  br i1 %32, label %34, label %33

33:                                               ; preds = %18
  store i32 0, ptr %2, align 4
  store i32 1, ptr %6, align 4
  br label %39

34:                                               ; preds = %18
  br label %35

35:                                               ; preds = %34
  %36 = load i32, ptr %5, align 4
  %37 = add nsw i32 %36, 1
  store i32 %37, ptr %5, align 4
  br label %14, !llvm.loop !31

38:                                               ; preds = %14
  store i32 1, ptr %2, align 4
  store i32 1, ptr %6, align 4
  br label %39

39:                                               ; preds = %38, %33, %9
  call void @llvm.lifetime.end.p0(i64 4, ptr %5) #9
  call void @llvm.lifetime.end.p0(i64 4, ptr %4) #9
  %40 = load i32, ptr %2, align 4
  ret i32 %40
}

; Function Attrs: nounwind uwtable
define dso_local i32 @s_p_parse_buffer(ptr noundef %0, ptr noundef %1, ptr noundef %2, i1 noundef zeroext %3) #0 {
  %5 = alloca i32, align 4
  %6 = alloca ptr, align 8
  %7 = alloca ptr, align 8
  %8 = alloca ptr, align 8
  %9 = alloca i8, align 1
  %10 = alloca ptr, align 8
  %11 = alloca i32, align 4
  %12 = alloca i32, align 4
  %13 = alloca ptr, align 8
  %14 = alloca i32, align 4
  %15 = alloca i32, align 4
  %16 = alloca ptr, align 8
  store ptr %0, ptr %6, align 8
  store ptr %1, ptr %7, align 8
  store ptr %2, ptr %8, align 8
  %17 = zext i1 %3 to i8
  store i8 %17, ptr %9, align 1
  call void @llvm.lifetime.start.p0(i64 8, ptr %10) #9
  store ptr null, ptr %10, align 8
  call void @llvm.lifetime.start.p0(i64 4, ptr %11) #9
  store i32 0, ptr %11, align 4
  call void @llvm.lifetime.start.p0(i64 4, ptr %12) #9
  call void @llvm.lifetime.start.p0(i64 8, ptr %13) #9
  store ptr null, ptr %13, align 8
  %18 = load ptr, ptr %8, align 8
  %19 = icmp ne ptr %18, null
  br i1 %19, label %22, label %20

20:                                               ; preds = %4
  %21 = call i32 (ptr, ...) @error(ptr noundef @.str.10)
  store i32 -1, ptr %5, align 4
  store i32 1, ptr %14, align 4
  br label %110

22:                                               ; preds = %4
  store i32 0, ptr %12, align 4
  br label %23

23:                                               ; preds = %93, %61, %53, %22
  %24 = load ptr, ptr %8, align 8
  %25 = getelementptr inbounds nuw %struct.buf_t, ptr %24, i32 0, i32 2
  %26 = load i32, ptr %25, align 8
  %27 = load ptr, ptr %8, align 8
  %28 = getelementptr inbounds nuw %struct.buf_t, ptr %27, i32 0, i32 3
  %29 = load i32, ptr %28, align 4
  %30 = sub i32 %26, %29
  %31 = icmp ugt i32 %30, 0
  br i1 %31, label %32, label %108

32:                                               ; preds = %23
  br label %33

33:                                               ; preds = %32
  call void @llvm.lifetime.start.p0(i64 4, ptr %15) #9
  %34 = load ptr, ptr %8, align 8
  %35 = call i32 @unpackstr_xmalloc_chooser(ptr noundef %13, ptr noundef %15, ptr noundef %34)
  %36 = icmp ne i32 %35, 0
  br i1 %36, label %37, label %38

37:                                               ; preds = %33
  store i32 6, ptr %14, align 4
  br label %39

38:                                               ; preds = %33
  store i32 0, ptr %14, align 4
  br label %39

39:                                               ; preds = %37, %38
  call void @llvm.lifetime.end.p0(i64 4, ptr %15) #9
  %40 = load i32, ptr %14, align 4
  switch i32 %40, label %110 [
    i32 0, label %41
    i32 6, label %96
  ]

41:                                               ; preds = %39
  br label %42

42:                                               ; preds = %41
  br label %43

43:                                               ; preds = %42
  %44 = load ptr, ptr %13, align 8
  %45 = icmp ne ptr %44, null
  br i1 %45, label %46, label %95

46:                                               ; preds = %43
  %47 = load i32, ptr %12, align 4
  %48 = add nsw i32 %47, 1
  store i32 %48, ptr %12, align 4
  %49 = load ptr, ptr %13, align 8
  %50 = load i8, ptr %49, align 1
  %51 = sext i8 %50 to i32
  %52 = icmp eq i32 %51, 0
  br i1 %52, label %53, label %54

53:                                               ; preds = %46
  call void @slurm_xfree(ptr noundef %13)
  br label %23, !llvm.loop !12

54:                                               ; preds = %46
  %55 = load ptr, ptr %6, align 8
  %56 = load ptr, ptr %13, align 8
  %57 = load i8, ptr %9, align 1, !range !13, !noundef !14
  %58 = trunc i8 %57 to i1
  %59 = call i32 @_parse_next_key(ptr noundef %55, ptr noundef %56, ptr noundef %10, i1 noundef zeroext %58)
  %60 = icmp ne i32 %59, 0
  br i1 %60, label %62, label %61

61:                                               ; preds = %54
  store i32 -1, ptr %11, align 4
  call void @slurm_xfree(ptr noundef %13)
  br label %23, !llvm.loop !12

62:                                               ; preds = %54
  %63 = load ptr, ptr %10, align 8
  %64 = call i32 @_line_is_space(ptr noundef %63)
  %65 = icmp ne i32 %64, 0
  br i1 %65, label %90, label %66

66:                                               ; preds = %62
  call void @llvm.lifetime.start.p0(i64 8, ptr %16) #9
  %67 = load ptr, ptr %10, align 8
  %68 = call ptr @xstrdup(ptr noundef %67)
  store ptr %68, ptr %16, align 8
  %69 = load ptr, ptr %16, align 8
  call void @_strip_cr_nl(ptr noundef %69)
  %70 = load i8, ptr %9, align 1, !range !13, !noundef !14
  %71 = trunc i8 %70 to i1
  br i1 %71, label %72, label %85

72:                                               ; preds = %66
  br label %73

73:                                               ; preds = %72
  br label %74

74:                                               ; preds = %73
  %75 = call i32 @get_log_level()
  %76 = icmp sge i32 %75, 5
  br i1 %76, label %77, label %80

77:                                               ; preds = %74
  %78 = load i32, ptr %12, align 4
  %79 = load ptr, ptr %16, align 8
  call void (i32, ptr, ...) @log_var(i32 noundef 5, ptr noundef @.str.11, i32 noundef %78, ptr noundef %79)
  br label %80

80:                                               ; preds = %77, %74
  br label %81

81:                                               ; preds = %80
  br label %82

82:                                               ; preds = %81
  br label %83

83:                                               ; preds = %82
  br label %84

84:                                               ; preds = %83
  br label %89

85:                                               ; preds = %66
  %86 = load i32, ptr %12, align 4
  %87 = load ptr, ptr %16, align 8
  %88 = call i32 (ptr, ...) @error(ptr noundef @.str.11, i32 noundef %86, ptr noundef %87)
  store i32 -1, ptr %11, align 4
  br label %89

89:                                               ; preds = %85, %84
  call void @slurm_xfree(ptr noundef %16)
  call void @llvm.lifetime.end.p0(i64 8, ptr %16) #9
  br label %90

90:                                               ; preds = %89, %62
  call void @slurm_xfree(ptr noundef %13)
  %91 = load i32, ptr %11, align 4
  %92 = icmp eq i32 %91, 0
  br i1 %92, label %93, label %94

93:                                               ; preds = %90
  br label %23, !llvm.loop !12

94:                                               ; preds = %90
  br label %95

95:                                               ; preds = %94, %43
  br label %96

96:                                               ; preds = %95, %39
  br label %97

97:                                               ; preds = %96
  br label %98

98:                                               ; preds = %97
  %99 = call i32 @get_log_level()
  %100 = icmp sge i32 %99, 7
  br i1 %100, label %101, label %103

101:                                              ; preds = %98
  %102 = load i32, ptr %12, align 4
  call void (i32, ptr, ...) @log_var(i32 noundef 7, ptr noundef @.str.12, i32 noundef %102)
  br label %103

103:                                              ; preds = %101, %98
  br label %104

104:                                              ; preds = %103
  br label %105

105:                                              ; preds = %104
  br label %106

106:                                              ; preds = %105
  br label %107

107:                                              ; preds = %106
  br label %108

108:                                              ; preds = %107, %23
  %109 = load i32, ptr %11, align 4
  store i32 %109, ptr %5, align 4
  store i32 1, ptr %14, align 4
  br label %110

110:                                              ; preds = %108, %39, %20
  call void @llvm.lifetime.end.p0(i64 8, ptr %13) #9
  call void @llvm.lifetime.end.p0(i64 4, ptr %12) #9
  call void @llvm.lifetime.end.p0(i64 4, ptr %11) #9
  call void @llvm.lifetime.end.p0(i64 8, ptr %10) #9
  %111 = load i32, ptr %5, align 4
  ret i32 %111
}