; Function Attrs: nounwind uwtable
define dso_local range(i32 -1, 1) i32 @s_p_parse_buffer(ptr noundef %0, ptr readnone captures(none) %1, ptr noundef %2, i1 noundef zeroext %3) #0 {
  %5 = alloca ptr, align 8
  %6 = alloca ptr, align 8
  %7 = alloca i32, align 4
  %8 = alloca ptr, align 8
  call void @llvm.lifetime.start.p0(i64 8, ptr nonnull %5) #13
  store ptr null, ptr %5, align 8
  call void @llvm.lifetime.start.p0(i64 8, ptr nonnull %6) #13
  store ptr null, ptr %6, align 8
  %.not = icmp eq ptr %2, null
  br i1 %.not, label %13, label %.preheader

.preheader:                                       ; preds = %4
  %9 = getelementptr inbounds nuw i8, ptr %2, i64 16
  %10 = getelementptr inbounds nuw i8, ptr %2, i64 20
  %11 = load i32, ptr %9, align 8
  %12 = load i32, ptr %10, align 4
  %.not203639 = icmp eq i32 %11, %12
  br i1 %.not203639, label %.loopexit, label %.lr.ph

13:                                               ; preds = %4
  %14 = tail call i32 (ptr, ...) @error(ptr noundef nonnull @.str.10) #13
  br label %.loopexit

15:                                               ; preds = %.lr.ph, %23
  %.01437 = phi i32 [ %.014.ph41, %.lr.ph ], [ %20, %23 ]
  call void @llvm.lifetime.start.p0(i64 4, ptr nonnull %7) #13
  %16 = call i32 @unpackstr_xmalloc_chooser(ptr noundef nonnull %6, ptr noundef nonnull %7, ptr noundef nonnull %2) #13
  %.not21 = icmp eq i32 %16, 0
  call void @llvm.lifetime.end.p0(i64 4, ptr nonnull %7) #13
  br i1 %.not21, label %17, label %.loopexit29

17:                                               ; preds = %15
  %18 = load ptr, ptr %6, align 8
  %.not22 = icmp eq ptr %18, null
  br i1 %.not22, label %.loopexit29, label %19

19:                                               ; preds = %17
  %20 = add nsw i32 %.01437, 1
  %21 = load i8, ptr %18, align 1
  %22 = icmp eq i8 %21, 0
  br i1 %22, label %23, label %26

23:                                               ; preds = %19
  call void @slurm_xfree(ptr noundef nonnull %6) #13
  %24 = load i32, ptr %9, align 8
  %25 = load i32, ptr %10, align 4
  %.not20 = icmp eq i32 %24, %25
  br i1 %.not20, label %.loopexit, label %15, !llvm.loop !14

26:                                               ; preds = %19
  %27 = call fastcc i32 @_parse_next_key(ptr noundef %0, ptr noundef nonnull %18, ptr noundef %5, i1 noundef zeroext %3)
  %.not23 = icmp eq i32 %27, 0
  br i1 %.not23, label %28, label %29

28:                                               ; preds = %26
  call void @slurm_xfree(ptr noundef nonnull %6) #13
  br label %.outer.backedge

.lr.ph:                                           ; preds = %.preheader, %.outer.backedge
  %.014.ph41 = phi i32 [ %20, %.outer.backedge ], [ 0, %.preheader ]
  %.015.ph40 = phi i32 [ %.015.ph.be, %.outer.backedge ], [ 0, %.preheader ]
  br label %15

29:                                               ; preds = %26
  %30 = load ptr, ptr %5, align 8
  %31 = icmp eq ptr %30, null
  br i1 %31, label %_line_is_space.exit.thread, label %32

32:                                               ; preds = %29
  %33 = call i64 @strlen(ptr noundef nonnull readonly dereferenceable(1) %30) #14
  %34 = trunc i64 %33 to i32
  %35 = icmp sgt i32 %34, 0
  br i1 %35, label %.lr.ph.i, label %_line_is_space.exit.thread

.lr.ph.i:                                         ; preds = %32
  %36 = tail call ptr @__ctype_b_loc() #15
  %37 = load ptr, ptr %36, align 8
  %wide.trip.count.i = and i64 %33, 2147483647
  br label %39

38:                                               ; preds = %39
  %indvars.iv.next.i = add nuw nsw i64 %indvars.iv.i, 1
  %exitcond.not.i = icmp eq i64 %indvars.iv.next.i, %wide.trip.count.i
  br i1 %exitcond.not.i, label %_line_is_space.exit.thread, label %39, !llvm.loop !15

39:                                               ; preds = %38, %.lr.ph.i
  %indvars.iv.i = phi i64 [ 0, %.lr.ph.i ], [ %indvars.iv.next.i, %38 ]
  %40 = getelementptr inbounds nuw i8, ptr %30, i64 %indvars.iv.i
  %41 = load i8, ptr %40, align 1
  %42 = sext i8 %41 to i64
  %43 = getelementptr inbounds i16, ptr %37, i64 %42
  %44 = load i16, ptr %43, align 2
  %45 = and i16 %44, 8192
  %.not.i = icmp eq i16 %45, 0
  br i1 %.not.i, label %_line_is_space.exit, label %38

_line_is_space.exit:                              ; preds = %39
  call void @llvm.lifetime.start.p0(i64 8, ptr nonnull %8) #13
  %46 = call ptr @xstrdup(ptr noundef nonnull %30) #13
  store ptr %46, ptr %8, align 8
  %47 = call i64 @strlen(ptr noundef nonnull dereferenceable(1) %46) #14
  %sext.i = shl i64 %47, 32
  %48 = ashr exact i64 %sext.i, 32
  %49 = getelementptr inbounds i8, ptr %46, i64 %48
  %.09.i = getelementptr inbounds i8, ptr %49, i64 -1
  %.not10.i = icmp ult ptr %.09.i, %46
  br i1 %.not10.i, label %_strip_cr_nl.exit, label %.lr.ph.i25

.lr.ph.i25:                                       ; preds = %_line_is_space.exit, %51
  %.011.i = phi ptr [ %.0.i, %51 ], [ %.09.i, %_line_is_space.exit ]
  %50 = load i8, ptr %.011.i, align 1
  switch i8 %50, label %_strip_cr_nl.exit [
    i8 13, label %51
    i8 10, label %51
  ]

51:                                               ; preds = %.lr.ph.i25, %.lr.ph.i25
  store i8 0, ptr %.011.i, align 1
  %.0.i = getelementptr inbounds i8, ptr %.011.i, i64 -1
  %.not.i26 = icmp ult ptr %.0.i, %46
  br i1 %.not.i26, label %_strip_cr_nl.exit, label %.lr.ph.i25, !llvm.loop !16

_strip_cr_nl.exit:                                ; preds = %.lr.ph.i25, %51, %_line_is_space.exit
  br i1 %3, label %52, label %57

52:                                               ; preds = %_strip_cr_nl.exit
  %53 = call i32 @get_log_level() #13
  %54 = icmp sgt i32 %53, 4
  br i1 %54, label %55, label %60

55:                                               ; preds = %52
  %56 = load ptr, ptr %8, align 8
  call void (i32, ptr, ...) @log_var(i32 noundef 5, ptr noundef nonnull @.str.11, i32 noundef %20, ptr noundef %56) #13
  br label %60

57:                                               ; preds = %_strip_cr_nl.exit
  %58 = load ptr, ptr %8, align 8
  %59 = call i32 (ptr, ...) @error(ptr noundef nonnull @.str.11, i32 noundef %20, ptr noundef %58) #13
  br label %60

60:                                               ; preds = %52, %55, %57
  %.3 = phi i32 [ %.015.ph40, %55 ], [ %.015.ph40, %52 ], [ -1, %57 ]
  call void @slurm_xfree(ptr noundef nonnull %8) #13
  call void @llvm.lifetime.end.p0(i64 8, ptr nonnull %8) #13
  br label %_line_is_space.exit.thread

_line_is_space.exit.thread:                       ; preds = %38, %32, %29, %60
  %.2 = phi i32 [ %.3, %60 ], [ %.015.ph40, %29 ], [ %.015.ph40, %32 ], [ %.015.ph40, %38 ]
  call void @slurm_xfree(ptr noundef nonnull %6) #13
  %61 = icmp eq i32 %.2, 0
  br i1 %61, label %.outer.backedge, label %.loopexit29

.outer.backedge:                                  ; preds = %_line_is_space.exit.thread, %28
  %.015.ph.be = phi i32 [ -1, %28 ], [ 0, %_line_is_space.exit.thread ]
  %62 = load i32, ptr %9, align 8
  %63 = load i32, ptr %10, align 4
  %.not2036 = icmp eq i32 %62, %63
  br i1 %.not2036, label %.loopexit, label %.lr.ph, !llvm.loop !14

.loopexit29:                                      ; preds = %_line_is_space.exit.thread, %15, %17
  %.4 = phi i32 [ %.015.ph40, %17 ], [ %.015.ph40, %15 ], [ -1, %_line_is_space.exit.thread ]
  %.1 = phi i32 [ %.01437, %17 ], [ %.01437, %15 ], [ %20, %_line_is_space.exit.thread ]
  %64 = call i32 @get_log_level() #13
  %65 = icmp sgt i32 %64, 6
  br i1 %65, label %66, label %.loopexit

66:                                               ; preds = %.loopexit29
  call void (i32, ptr, ...) @log_var(i32 noundef 7, ptr noundef nonnull @.str.12, i32 noundef %.1) #13
  br label %.loopexit

.loopexit:                                        ; preds = %.outer.backedge, %23, %.preheader, %66, %.loopexit29, %13
  %.017 = phi i32 [ -1, %13 ], [ %.4, %66 ], [ %.4, %.loopexit29 ], [ 0, %.preheader ], [ %.015.ph40, %23 ], [ %.015.ph.be, %.outer.backedge ]
  call void @llvm.lifetime.end.p0(i64 8, ptr nonnull %6) #13
  call void @llvm.lifetime.end.p0(i64 8, ptr nonnull %5) #13
  ret i32 %.017
}